Certificate:
    Data:
        Version: 3 (0x2)
        Serial Number: 2 (0x2)
        Signature Algorithm: sha256WithRSAEncryption
        Issuer: C=SW, ST=Stockholm, L=Stockholm, O=KTH, OU=KTH, CN=ACME/name=EasyRSA/emailAddress=hongyiz@kth.se
        Validity
            Not Before: Jan 27 15:48:56 2018 GMT
            Not After : Jan 25 15:48:56 2028 GMT
        Subject: C=SW, ST=Stockholm, L=Stockholm, O=KTH, OU=KTH, CN=client1/name=EasyRSA/emailAddress=hongyiz@kth.se
        Subject Public Key Info:
            Public Key Algorithm: rsaEncryption
            RSA Public Key: (2048 bit)
                Modulus (2048 bit):
                    00:a4:6e:7c:17:19:64:bb:7c:66:53:79:11:42:59:
                    3f:e1:c6:0d:d9:4f:6f:28:33:e8:6b:ec:fe:15:ea:
                    7e:d7:ff:25:93:62:1e:d6:c0:13:2c:5b:78:88:76:
                    19:a2:47:3c:cd:d3:b4:23:37:e4:f3:7b:f2:a8:cd:
                    0d:da:91:93:95:a2:81:99:fd:bf:0b:1b:9a:6f:e2:
                    b9:48:54:ea:37:82:28:7a:44:16:6d:32:60:a4:52:
                    8b:a0:84:bb:dc:a5:61:87:f8:9d:80:15:50:2d:88:
                    a5:74:57:e7:22:9a:0d:e3:49:cc:24:08:b6:2f:7f:
                    9e:4f:0c:42:4c:88:d0:80:d6:d6:3f:8c:aa:83:a0:
                    94:08:2c:f4:0e:ac:c0:1a:5d:ec:95:39:b7:70:57:
                    68:18:93:35:d7:2d:62:24:47:7e:6b:3d:f5:59:bd:
                    1e:e7:91:5b:f7:42:0d:a0:c6:92:cd:f5:be:a4:06:
                    47:97:5f:af:21:f4:cc:60:6a:04:08:9e:a3:f1:47:
                    a9:91:05:d9:eb:23:fa:aa:1d:46:16:99:06:46:3a:
                    15:91:aa:24:ae:7b:4b:93:3c:fa:ee:e9:e6:e6:fe:
                    c6:47:a9:e4:59:71:29:27:37:08:6e:ce:85:cb:fb:
                    b1:9d:9d:73:9b:7a:71:6f:7d:d6:8a:52:7a:9c:31:
                    07:cb
                Exponent: 65537 (0x10001)
        X509v3 extensions:
            X509v3 Basic Constraints: 
                CA:FALSE
            Netscape Comment: 
                Easy-RSA Generated Certificate
            X509v3 Subject Key Identifier: 
                B6:AA:A0:DB:34:D8:C6:55:38:06:73:98:8B:1D:13:D8:1C:F2:4B:AD
            X509v3 Authority Key Identifier: 
                keyid:45:11:3F:97:8D:3E:C2:39:F3:54:1B:37:E8:6B:1B:DD:11:E0:5F:BE
                DirName:/C=SW/ST=Stockholm/L=Stockholm/O=KTH/OU=KTH/CN=ACME/name=EasyRSA/emailAddress=hongyiz@kth.se
                serial:9D:3F:A0:5E:57:E9:1F:12

            X509v3 Extended Key Usage: 
                TLS Web Client Authentication
            X509v3 Key Usage: 
                Digital Signature
    Signature Algorithm: sha256WithRSAEncryption
        84:c5:24:9a:ef:97:e2:6d:cc:d3:96:76:8f:44:6e:0e:11:fa:
        99:d4:c3:2b:78:73:0f:08:ad:a2:26:df:38:77:51:af:82:ff:
        ce:da:30:a0:be:a5:67:f9:88:50:2f:c3:29:68:be:37:cd:d8:
        6f:d9:44:37:e4:68:12:51:0e:ee:71:a5:b3:9a:55:4b:99:41:
        2a:2f:62:57:18:51:da:48:f7:65:15:b4:59:ed:95:97:b1:92:
        61:ec:93:6c:8f:e1:b8:bb:aa:56:8e:f6:18:21:fc:97:92:74:
        df:16:ae:7a:81:74:67:3f:75:5d:e1:01:28:17:0b:c0:65:45:
        46:ec:1c:07:f7:be:98:1f:90:7d:fb:7c:c5:a0:9d:68:a4:89:
        5e:c2:d5:21:a7:76:33:18:7d:32:f7:9b:88:b5:0d:62:bc:ab:
        12:e8:dc:41:b6:02:bd:e2:1c:1a:f8:d2:c6:a7:f6:d8:10:70:
        83:0b:b8:4b:2e:48:18:22:f5:a8:fd:1e:db:86:ba:7c:ac:3f:
        2d:e5:ec:3a:e7:17:bc:94:82:be:79:1c:3c:a5:c2:73:b6:70:
        86:d5:0c:d4:c7:55:f8:4e:a9:cb:d8:c8:41:1f:49:40:c0:7f:
        20:ee:5f:80:d9:91:f1:cf:ea:90:70:dc:76:19:74:ea:fa:eb:
        1a:7d:59:cf
-----BEGIN CERTIFICATE-----
MIIE7DCCA9SgAwIBAgIBAjANBgkqhkiG9w0BAQsFADCBkTELMAkGA1UEBhMCU1cx
EjAQBgNVBAgTCVN0b2NraG9sbTESMBAGA1UEBxMJU3RvY2tob2xtMQwwCgYDVQQK
EwNLVEgxDDAKBgNVBAsTA0tUSDENMAsGA1UEAxMEQUNNRTEQMA4GA1UEKRMHRWFz
eVJTQTEdMBsGCSqGSIb3DQEJARYOaG9uZ3lpekBrdGguc2UwHhcNMTgwMTI3MTU0
ODU2WhcNMjgwMTI1MTU0ODU2WjCBlDELMAkGA1UEBhMCU1cxEjAQBgNVBAgTCVN0
b2NraG9sbTESMBAGA1UEBxMJU3RvY2tob2xtMQwwCgYDVQQKEwNLVEgxDDAKBgNV
BAsTA0tUSDEQMA4GA1UEAxMHY2xpZW50MTEQMA4GA1UEKRMHRWFzeVJTQTEdMBsG
CSqGSIb3DQEJARYOaG9uZ3lpekBrdGguc2UwggEiMA0GCSqGSIb3DQEBAQUAA4IB
DwAwggEKAoIBAQCkbnwXGWS7fGZTeRFCWT/hxg3ZT28oM+hr7P4V6n7X/yWTYh7W
wBMsW3iIdhmiRzzN07QjN+Tze/KozQ3akZOVooGZ/b8LG5pv4rlIVOo3gih6RBZt
MmCkUoughLvcpWGH+J2AFVAtiKV0V+cimg3jScwkCLYvf55PDEJMiNCA1tY/jKqD
oJQILPQOrMAaXeyVObdwV2gYkzXXLWIkR35rPfVZvR7nkVv3Qg2gxpLN9b6kBkeX
X68h9MxgagQInqPxR6mRBdnrI/qqHUYWmQZGOhWRqiSue0uTPPru6ebm/sZHqeRZ
cSknNwhuzoXL+7GdnXObenFvfdaKUnqcMQfLAgMBAAGjggFIMIIBRDAJBgNVHRME
AjAAMC0GCWCGSAGG+EIBDQQgFh5FYXN5LVJTQSBHZW5lcmF0ZWQgQ2VydGlmaWNh
dGUwHQYDVR0OBBYEFLaqoNs02MZVOAZzmIsdE9gc8kutMIHGBgNVHSMEgb4wgbuA
FEURP5eNPsI581QbN+hrG90R4F++oYGXpIGUMIGRMQswCQYDVQQGEwJTVzESMBAG
A1UECBMJU3RvY2tob2xtMRIwEAYDVQQHEwlTdG9ja2hvbG0xDDAKBgNVBAoTA0tU
SDEMMAoGA1UECxMDS1RIMQ0wCwYDVQQDEwRBQ01FMRAwDgYDVQQpEwdFYXN5UlNB
MR0wGwYJKoZIhvcNAQkBFg5ob25neWl6QGt0aC5zZYIJAJ0/oF5X6R8SMBMGA1Ud
JQQMMAoGCCsGAQUFBwMCMAsGA1UdDwQEAwIHgDANBgkqhkiG9w0BAQsFAAOCAQEA
hMUkmu+X4m3M05Z2j0RuDhH6mdTDK3hzDwitoibfOHdRr4L/ztowoL6lZ/mIUC/D
KWi+N83Yb9lEN+RoElEO7nGls5pVS5lBKi9iVxhR2kj3ZRW0We2Vl7GSYeyTbI/h
uLuqVo72GCH8l5J03xaueoF0Zz91XeEBKBcLwGVFRuwcB/e+mB+Qfft8xaCdaKSJ
XsLVIad2Mxh9MvebiLUNYryrEujcQbYCveIcGvjSxqf22BBwgwu4Sy5IGCL1qP0e
24a6fKw/LeXsOucXvJSCvnkcPKXCc7ZwhtUM1MdV+E6py9jIQR9JQMB/IO5fgNmR
8c/qkHDcdhl06vrrGn1Zzw==
-----END CERTIFICATE-----
