Certificate:
    Data:
        Version: 3 (0x2)
        Serial Number: 4 (0x4)
        Signature Algorithm: sha256WithRSAEncryption
        Issuer: C=SW, ST=Stockholm, L=Stockholm, O=KTH, OU=KTH, CN=ACME/name=EasyRSA/emailAddress=hongyiz@kth.se
        Validity
            Not Before: Jan 27 15:49:35 2018 GMT
            Not After : Jan 25 15:49:35 2028 GMT
        Subject: C=SW, ST=Stockholm, L=Stockholm, O=KTH, OU=KTH, CN=client3/name=EasyRSA/emailAddress=hongyiz@kth.se
        Subject Public Key Info:
            Public Key Algorithm: rsaEncryption
            RSA Public Key: (2048 bit)
                Modulus (2048 bit):
                    00:e0:d4:56:ae:c1:a3:8b:7e:59:e9:b9:d8:0c:ac:
                    f0:3b:27:b5:be:c7:87:0a:5c:6d:ff:80:94:22:fb:
                    4c:1d:88:96:17:9a:0e:7f:64:96:a8:eb:2b:04:ba:
                    a8:7d:27:6b:04:77:38:f2:b0:ca:63:b1:ee:09:e5:
                    33:46:ac:b0:3a:ff:d0:62:b5:2a:46:19:51:c2:bb:
                    cc:e5:df:f6:69:23:f8:58:19:c8:b9:90:65:13:6e:
                    09:01:7f:bd:cb:1a:0d:47:6c:f0:c3:97:f5:0d:31:
                    7a:f6:90:54:3e:3c:7d:23:49:97:b8:ee:00:4f:3b:
                    24:7f:72:cf:2f:64:aa:ed:79:eb:fc:ba:fe:6d:9c:
                    a3:af:53:dd:af:86:f8:8e:11:65:9e:69:bc:f7:29:
                    f1:06:09:ae:e3:e2:b6:79:3f:13:92:a3:6e:f3:b9:
                    2f:2d:5b:41:be:23:a5:0d:19:98:51:98:b1:3e:bb:
                    89:03:da:21:b3:09:b2:9c:49:4a:61:3d:76:bc:a6:
                    9a:0d:88:77:64:5c:e7:3b:89:ff:a4:e6:3f:f3:ac:
                    89:6c:6e:88:2f:6b:15:62:a0:38:08:b5:1a:e7:98:
                    e1:d0:ea:28:7f:de:22:b1:20:20:1b:14:14:3b:c4:
                    dc:91:77:81:2d:bd:d5:cd:0b:37:6c:52:37:5b:56:
                    1a:75
                Exponent: 65537 (0x10001)
        X509v3 extensions:
            X509v3 Basic Constraints: 
                CA:FALSE
            Netscape Comment: 
                Easy-RSA Generated Certificate
            X509v3 Subject Key Identifier: 
                83:36:FD:37:C8:16:22:D4:89:DC:70:59:A9:C7:6B:28:B3:7B:75:31
            X509v3 Authority Key Identifier: 
                keyid:45:11:3F:97:8D:3E:C2:39:F3:54:1B:37:E8:6B:1B:DD:11:E0:5F:BE
                DirName:/C=SW/ST=Stockholm/L=Stockholm/O=KTH/OU=KTH/CN=ACME/name=EasyRSA/emailAddress=hongyiz@kth.se
                serial:9D:3F:A0:5E:57:E9:1F:12

            X509v3 Extended Key Usage: 
                TLS Web Client Authentication
            X509v3 Key Usage: 
                Digital Signature
    Signature Algorithm: sha256WithRSAEncryption
        3c:76:03:9b:4f:ae:44:4a:b2:2d:41:37:3e:b4:50:c3:0d:78:
        8b:0a:a1:07:8d:96:bb:8a:d5:c5:8c:7b:ff:bc:ef:a2:f8:ba:
        09:dc:b3:26:40:8b:56:72:4e:48:ab:c1:34:35:d3:fd:ba:53:
        07:7f:c3:76:6d:67:aa:1f:9b:96:73:78:15:5b:d9:97:0b:e3:
        bf:1d:53:c8:24:a3:7f:3c:b6:a3:3c:95:fd:91:35:80:fe:a7:
        96:40:26:c4:87:43:15:98:9d:02:c7:c0:3e:db:36:c4:b8:bf:
        72:65:94:10:53:3b:75:7f:cc:1b:21:bd:2f:78:3d:61:d7:d7:
        b4:8d:f7:2d:ed:20:4c:bc:15:88:6c:0c:69:a0:9c:56:ce:4b:
        4d:7b:d5:ea:93:a9:b2:f9:95:7b:d8:2a:af:4f:03:b3:e1:e3:
        90:e8:a1:bf:62:0b:e8:00:76:2c:8e:39:bc:1a:58:da:f9:96:
        43:12:75:7e:24:46:30:cd:f0:2b:e0:4d:c9:cb:47:8c:71:ca:
        ec:d7:7c:7d:65:3c:b0:b9:f6:63:33:10:43:d3:34:06:7a:7a:
        dc:54:9a:c2:38:9e:e8:8d:b5:0a:42:c1:42:71:fa:57:6a:58:
        e5:b8:d0:67:77:6f:2b:8f:69:88:3b:d7:59:ed:66:25:10:ce:
        0a:0a:70:62
-----BEGIN CERTIFICATE-----
MIIE7DCCA9SgAwIBAgIBBDANBgkqhkiG9w0BAQsFADCBkTELMAkGA1UEBhMCU1cx
EjAQBgNVBAgTCVN0b2NraG9sbTESMBAGA1UEBxMJU3RvY2tob2xtMQwwCgYDVQQK
EwNLVEgxDDAKBgNVBAsTA0tUSDENMAsGA1UEAxMEQUNNRTEQMA4GA1UEKRMHRWFz
eVJTQTEdMBsGCSqGSIb3DQEJARYOaG9uZ3lpekBrdGguc2UwHhcNMTgwMTI3MTU0
OTM1WhcNMjgwMTI1MTU0OTM1WjCBlDELMAkGA1UEBhMCU1cxEjAQBgNVBAgTCVN0
b2NraG9sbTESMBAGA1UEBxMJU3RvY2tob2xtMQwwCgYDVQQKEwNLVEgxDDAKBgNV
BAsTA0tUSDEQMA4GA1UEAxMHY2xpZW50MzEQMA4GA1UEKRMHRWFzeVJTQTEdMBsG
CSqGSIb3DQEJARYOaG9uZ3lpekBrdGguc2UwggEiMA0GCSqGSIb3DQEBAQUAA4IB
DwAwggEKAoIBAQDg1FauwaOLflnpudgMrPA7J7W+x4cKXG3/gJQi+0wdiJYXmg5/
ZJao6ysEuqh9J2sEdzjysMpjse4J5TNGrLA6/9BitSpGGVHCu8zl3/ZpI/hYGci5
kGUTbgkBf73LGg1HbPDDl/UNMXr2kFQ+PH0jSZe47gBPOyR/cs8vZKrteev8uv5t
nKOvU92vhviOEWWeabz3KfEGCa7j4rZ5PxOSo27zuS8tW0G+I6UNGZhRmLE+u4kD
2iGzCbKcSUphPXa8ppoNiHdkXOc7if+k5j/zrIlsbogvaxVioDgItRrnmOHQ6ih/
3iKxICAbFBQ7xNyRd4EtvdXNCzdsUjdbVhp1AgMBAAGjggFIMIIBRDAJBgNVHRME
AjAAMC0GCWCGSAGG+EIBDQQgFh5FYXN5LVJTQSBHZW5lcmF0ZWQgQ2VydGlmaWNh
dGUwHQYDVR0OBBYEFIM2/TfIFiLUidxwWanHayize3UxMIHGBgNVHSMEgb4wgbuA
FEURP5eNPsI581QbN+hrG90R4F++oYGXpIGUMIGRMQswCQYDVQQGEwJTVzESMBAG
A1UECBMJU3RvY2tob2xtMRIwEAYDVQQHEwlTdG9ja2hvbG0xDDAKBgNVBAoTA0tU
SDEMMAoGA1UECxMDS1RIMQ0wCwYDVQQDEwRBQ01FMRAwDgYDVQQpEwdFYXN5UlNB
MR0wGwYJKoZIhvcNAQkBFg5ob25neWl6QGt0aC5zZYIJAJ0/oF5X6R8SMBMGA1Ud
JQQMMAoGCCsGAQUFBwMCMAsGA1UdDwQEAwIHgDANBgkqhkiG9w0BAQsFAAOCAQEA
PHYDm0+uREqyLUE3PrRQww14iwqhB42Wu4rVxYx7/7zvovi6CdyzJkCLVnJOSKvB
NDXT/bpTB3/Ddm1nqh+blnN4FVvZlwvjvx1TyCSjfzy2ozyV/ZE1gP6nlkAmxIdD
FZidAsfAPts2xLi/cmWUEFM7dX/MGyG9L3g9YdfXtI33Le0gTLwViGwMaaCcVs5L
TXvV6pOpsvmVe9gqr08Ds+HjkOihv2IL6AB2LI45vBpY2vmWQxJ1fiRGMM3wK+BN
yctHjHHK7Nd8fWU8sLn2YzMQQ9M0Bnp63FSawjie6I21CkLBQnH6V2pY5bjQZ3dv
K49piDvXWe1mJRDOCgpwYg==
-----END CERTIFICATE-----
